(dp0
S'twi_rxBufferIndex'
p1
(lp2
I630
aI1
aS'char'
p3
asS'timer0_fract'
p4
(lp5
I640
aI1
ag3
asS'twi_state'
p6
(lp7
I522
aI1
ag3
asS'timer0_overflow_count'
p8
(lp9
I632
aI4
aS'long'
p10
asS'fr_ctrl_value'
p11
(lp12
I380
aI2
aS'int'
p13
asS'twi_sendStop'
p14
(lp15
I524
aI1
ag3
asS'_ZN7TwoWire13rxBufferIndexE'
p16
(lp17
I473
aI1
ag3
asS'_usbConfiguration'
p18
(lp19
I725
aI1
ag3
asS'twi_slarw'
p20
(lp21
I523
aI1
ag3
asS'fl_offset'
p22
(lp23
I374
aI2
ag13
asS'twi_masterBufferIndex'
p24
(lp25
I562
aI1
ag3
asS'common_x'
p26
(lp27
I256
aI10
ag13
asS'rr_y'
p28
(lp29
I286
aI10
ag13
asS'USBDevice'
p30
(lp31
I731
aI1
ag3
asS'rl_ctrl_value'
p32
(lp33
I386
aI2
ag13
asS'rl_micros'
p34
(lp35
I312
aI2
ag13
asS'twi_error'
p36
(lp37
I631
aI1
ag3
asS'_cmark'
p38
(lp39
I726
aI2
ag13
asS'_hid_protocol'
p40
(lp41
I322
aI1
ag3
asS'fl_ctrl_value'
p42
(lp43
I382
aI2
ag13
asS'fr_offset'
p44
(lp45
I372
aI2
ag13
asS'rr_ctrl_value'
p46
(lp47
I384
aI2
ag13
asS'fr_micros'
p48
(lp49
I306
aI2
ag13
asS'ServoCount'
p50
(lp51
I403
aI1
ag3
asS'RxLEDPulse'
p52
(lp53
I724
aI1
ag3
asS'rr_micros'
p54
(lp55
I310
aI2
ag13
asS'fl_micros'
p56
(lp57
I308
aI2
ag13
asS'_cend'
p58
(lp59
I728
aI2
ag13
asS'TxLEDPulse'
p60
(lp61
I723
aI1
ag3
asS'twi_txBufferIndex'
p62
(lp63
I596
aI1
ag3
asS'twi_txBufferLength'
p64
(lp65
I597
aI1
ag3
asS'twi_masterBufferLength'
p66
(lp67
I563
aI1
ag3
asS'fr_y'
p68
(lp69
I266
aI10
ag13
asS'twi_onSlaveReceive'
p70
(lp71
I528
aI2
ag13
asS'_ZN7TwoWire12transmittingE'
p72
(lp73
I509
aI1
ag3
asS'_ZL7Channel'
p74
(lp75
I440
aI1
ag3
asS'twi_inRepStart'
p76
(lp77
I525
aI1
ag3
asS'_ZN7TwoWire13txBufferIndexE'
p78
(lp79
I507
aI1
ag3
asS'timer0_millis'
p80
(lp81
I636
aI4
ag10
asS'rl_y'
p82
(lp83
I296
aI10
ag13
asS'_cdcComposite'
p84
(lp85
I730
aI1
ag3
asS'com_state'
p86
(lp87
I400
aI2
ag13
asS'fl_y'
p88
(lp89
I276
aI10
ag13
asS'_ZN7TwoWire14txBufferLengthE'
p90
(lp91
I508
aI1
ag3
asS'EEPROM'
p92
(lp93
I402
aI1
ag3
asS'_ZN7TwoWire14rxBufferLengthE'
p94
(lp95
I474
aI1
ag3
asS'rl_offset'
p96
(lp97
I378
aI2
ag13
asS'twi_onSlaveTransmit'
p98
(lp99
I526
aI2
ag13
asS'rr_offset'
p100
(lp101
I376
aI2
ag13
asS'Mouse'
p102
(lp103
I732
aI1
ag3
asS'_hid_idle'
p104
(lp105
I323
aI1
ag3
as.